	.file	"tsc.c"
	.intel_syntax noprefix
	.text
.Ltext0:
	.section	.text.unlikely,"ax",@progbits
.LCOLDB9:
	.text
.LHOTB9:
	.p2align 4,,15
	.section	.text.unlikely
.Ltext_cold0:
	.text
	.globl	set1d
	.type	set1d, @function
set1d:
.LFB570:
	.file 1 "tsc.c"
	.loc 1 78 0
	.cfi_startproc
.LVL0:
	.loc 1 79 0
	cmp	esi, -1
	je	.L39
	.loc 1 83 0
	cmp	esi, -2
	je	.L40
	movsx	rdx, esi
	xor	eax, eax
	sal	rdx, 2
.LVL1:
	.p2align 4,,10
	.p2align 3
.L17:
.LBB100:
	.loc 1 88 0 discriminator 3
	add	eax, esi
.LVL2:
	.loc 1 89 0 discriminator 3
	movss	DWORD PTR [rdi], xmm0
	add	rdi, rdx
	.loc 1 88 0 discriminator 3
	cmp	eax, 31999
	jle	.L17
.LVL3:
.L26:
.LBE100:
	.loc 1 93 0
	xor	eax, eax
	ret
.LVL4:
	.p2align 4,,10
	.p2align 3
.L39:
	mov	rax, rdi
	and	eax, 15
	shr	rax, 2
	neg	rax
	and	eax, 3
	je	.L18
.LVL5:
	cmp	eax, 1
.LBB101:
	.loc 1 81 0
	mov	DWORD PTR [rdi], 0x3f800000
.LVL6:
	je	.L19
	cmp	eax, 3
	mov	DWORD PTR 4[rdi], 0x3f000000
.LVL7:
	jne	.L20
	mov	DWORD PTR 8[rdi], 0x3eaaaaab
.LVL8:
	mov	r8d, 31997
	mov	esi, 3
.LVL9:
.L4:
	mov	r9d, 32000
	mov	edx, eax
	mov	r10d, 31996
	sub	r9d, eax
	mov	ecx, 7999
.L3:
	mov	DWORD PTR -12[rsp], esi
	lea	rdx, [rdi+rdx*4]
.LBE101:
	.loc 1 79 0
	xor	eax, eax
	movd	xmm5, DWORD PTR -12[rsp]
	movdqa	xmm3, XMMWORD PTR .LC4[rip]
	pshufd	xmm4, xmm5, 0
	movdqa	xmm2, XMMWORD PTR .LC5[rip]
	paddd	xmm4, XMMWORD PTR .LC3[rip]
.LVL10:
	.p2align 4,,10
	.p2align 3
.L5:
.LBB102:
	.loc 1 81 0 discriminator 3
	movdqa	xmm1, xmm4
	add	eax, 1
	paddd	xmm4, xmm3
	add	rdx, 16
	paddd	xmm1, xmm2
	cvtdq2ps	xmm1, xmm1
	rcpps	xmm0, xmm1
	mulps	xmm1, xmm0
	mulps	xmm1, xmm0
	addps	xmm0, xmm0
	subps	xmm0, xmm1
	movaps	XMMWORD PTR -16[rdx], xmm0
	cmp	eax, ecx
	jb	.L5
	mov	edx, r8d
	lea	eax, [r10+rsi]
	sub	edx, r10d
	cmp	r9d, r10d
	je	.L26
.LVL11:
	.loc 1 81 0 is_stmt 0
	pxor	xmm0, xmm0
	lea	ecx, 1[rax]
	movsx	rsi, eax
	movss	xmm1, DWORD PTR .LC0[rip]
	.loc 1 80 0 is_stmt 1
	cmp	edx, 1
	.loc 1 81 0
	movaps	xmm5, xmm1
	cvtsi2ss	xmm0, ecx
	divss	xmm5, xmm0
	movss	DWORD PTR [rdi+rsi*4], xmm5
.LVL12:
	.loc 1 80 0
	je	.L26
	.loc 1 81 0
	pxor	xmm0, xmm0
	lea	esi, 2[rax]
	movsx	rcx, ecx
	movaps	xmm6, xmm1
	.loc 1 80 0
	cmp	edx, 2
	.loc 1 81 0
	cvtsi2ss	xmm0, esi
	divss	xmm6, xmm0
	movss	DWORD PTR [rdi+rcx*4], xmm6
.LVL13:
	.loc 1 80 0
	je	.L26
	.loc 1 81 0
	pxor	xmm0, xmm0
	add	eax, 3
	movsx	rsi, esi
	cvtsi2ss	xmm0, eax
.LBE102:
	.loc 1 93 0
	xor	eax, eax
.LBB103:
	.loc 1 81 0
	divss	xmm1, xmm0
	movss	DWORD PTR [rdi+rsi*4], xmm1
.LVL14:
.LBE103:
	.loc 1 93 0
	ret
.LVL15:
	.p2align 4,,10
	.p2align 3
.L40:
	mov	rax, rdi
	and	eax, 15
	shr	rax, 2
	neg	rax
	and	eax, 3
	je	.L21
.LVL16:
	cmp	eax, 1
.LBB104:
.LBB105:
	.loc 1 85 0
	mov	DWORD PTR [rdi], 0x3f800000
.LVL17:
	je	.L22
	cmp	eax, 3
	mov	DWORD PTR 4[rdi], 0x3e800000
.LVL18:
	jne	.L23
	mov	DWORD PTR 8[rdi], 0x3de38e39
.LVL19:
	mov	r8d, 31997
	mov	esi, 3
.LVL20:
.L11:
	mov	r9d, 32000
	mov	edx, eax
	mov	r10d, 31996
	sub	r9d, eax
	mov	ecx, 7999
.L10:
	mov	DWORD PTR -12[rsp], esi
	lea	rdx, [rdi+rdx*4]
.LBE105:
.LBE104:
	.loc 1 83 0
	xor	eax, eax
	movd	xmm6, DWORD PTR -12[rsp]
	movdqa	xmm3, XMMWORD PTR .LC4[rip]
	pshufd	xmm4, xmm6, 0
	movdqa	xmm2, XMMWORD PTR .LC5[rip]
	paddd	xmm4, XMMWORD PTR .LC3[rip]
.LVL21:
	.p2align 4,,10
	.p2align 3
.L12:
.LBB109:
.LBB106:
	.loc 1 85 0
	movdqa	xmm1, xmm4
	add	eax, 1
	paddd	xmm4, xmm3
	add	rdx, 16
	paddd	xmm1, xmm2
	movdqa	xmm0, xmm1
	pmuludq	xmm0, xmm1
	psrlq	xmm1, 32
	pshufd	xmm0, xmm0, 8
	pmuludq	xmm1, xmm1
	pshufd	xmm1, xmm1, 8
	punpckldq	xmm0, xmm1
	cvtdq2ps	xmm0, xmm0
	rcpps	xmm1, xmm0
	mulps	xmm0, xmm1
	mulps	xmm0, xmm1
	addps	xmm1, xmm1
	subps	xmm1, xmm0
	movaps	XMMWORD PTR -16[rdx], xmm1
	cmp	eax, ecx
	jb	.L12
	lea	eax, [r10+rsi]
	mov	esi, r8d
	sub	esi, r10d
	cmp	r9d, r10d
	je	.L26
.LVL22:
	lea	edx, 1[rax]
	pxor	xmm0, xmm0
	movss	xmm1, DWORD PTR .LC0[rip]
	movsx	r8, eax
	mov	ecx, edx
	movaps	xmm7, xmm1
	imul	ecx, edx
	.loc 1 84 0
	cmp	esi, 1
	.loc 1 85 0
	cvtsi2ss	xmm0, ecx
	divss	xmm7, xmm0
	movss	DWORD PTR [rdi+r8*4], xmm7
.LVL23:
	.loc 1 84 0
	je	.L26
	.loc 1 85 0
	lea	ecx, 2[rax]
	pxor	xmm0, xmm0
	movaps	xmm7, xmm1
	movsx	rdx, edx
	mov	r8d, ecx
	imul	r8d, ecx
	.loc 1 84 0
	cmp	esi, 2
	.loc 1 85 0
	cvtsi2ss	xmm0, r8d
	divss	xmm7, xmm0
	movss	DWORD PTR [rdi+rdx*4], xmm7
.LVL24:
	.loc 1 84 0
	je	.L26
	.loc 1 85 0
	add	eax, 3
	pxor	xmm0, xmm0
	imul	eax, eax
	movsx	rcx, ecx
	cvtsi2ss	xmm0, eax
.LBE106:
.LBE109:
	.loc 1 93 0
	xor	eax, eax
.LBB110:
.LBB107:
	.loc 1 85 0
	divss	xmm1, xmm0
	movss	DWORD PTR [rdi+rcx*4], xmm1
.LVL25:
.LBE107:
.LBE110:
	.loc 1 93 0
	ret
.LVL26:
	.p2align 4,,10
	.p2align 3
.L18:
	.loc 1 79 0
	mov	r10d, 32000
	mov	ecx, 8000
	mov	r9d, 32000
	xor	edx, edx
	xor	esi, esi
.LVL27:
	mov	r8d, 32000
	jmp	.L3
.LVL28:
	.p2align 4,,10
	.p2align 3
.L21:
	.loc 1 83 0
	mov	r10d, 32000
	mov	ecx, 8000
	mov	r9d, 32000
	xor	edx, edx
	mov	r8d, 32000
	xor	esi, esi
.LVL29:
	jmp	.L10
.LVL30:
.L20:
.LBB111:
	.loc 1 81 0
	mov	r8d, 31998
	mov	esi, 2
.LVL31:
	jmp	.L4
.LVL32:
.L19:
	mov	r8d, 31999
	mov	esi, 1
.LVL33:
	jmp	.L4
.LVL34:
.L22:
.LBE111:
.LBB112:
.LBB108:
	.loc 1 85 0
	mov	r8d, 31999
	mov	esi, 1
.LVL35:
	jmp	.L11
.LVL36:
.L23:
	mov	r8d, 31998
	mov	esi, 2
.LVL37:
	jmp	.L11
.LBE108:
.LBE112:
	.cfi_endproc
.LFE570:
	.size	set1d, .-set1d
	.section	.text.unlikely
.LCOLDE9:
	.text
.LHOTE9:
	.section	.text.unlikely
.LCOLDB10:
	.text
.LHOTB10:
	.p2align 4,,15
	.globl	set2d
	.type	set2d, @function
set2d:
.LFB571:
	.loc 1 96 0
	.cfi_startproc
.LVL38:
	.loc 1 100 0
	cmp	esi, -1
	.loc 1 96 0
	push	rbp
	.cfi_def_cfa_offset 16
	.cfi_offset 6, -16
	push	rbx
	.cfi_def_cfa_offset 24
	.cfi_offset 3, -24
	.loc 1 100 0
	je	.L90
	.loc 1 106 0
	cmp	esi, -2
	je	.L91
	mov	rcx, rdi
	lea	rdi, 129600[rdi]
.LVL39:
	.p2align 4,,10
	.p2align 3
.L62:
.LBB126:
.LBB127:
.LBB128:
	.loc 1 108 0
	xor	eax, eax
.LVL40:
	.p2align 4,,10
	.p2align 3
.L61:
.LBE128:
.LBE127:
.LBE126:
.LBB134:
.LBB135:
	.loc 1 115 0 discriminator 3
	movsx	rdx, eax
	.loc 1 114 0 discriminator 3
	add	eax, esi
.LVL41:
	cmp	eax, 179
	.loc 1 115 0 discriminator 3
	movss	DWORD PTR [rcx+rdx*4], xmm0
	.loc 1 114 0 discriminator 3
	jle	.L61
.LVL42:
	add	rcx, 720
.LBE135:
	.loc 1 113 0 discriminator 2
	cmp	rcx, rdi
	jne	.L62
.LVL43:
.L49:
.LBE134:
	.loc 1 120 0
	xor	eax, eax
	pop	rbx
	.cfi_remember_state
	.cfi_def_cfa_offset 16
	pop	rbp
	.cfi_def_cfa_offset 8
	ret
.LVL44:
.L90:
	.cfi_restore_state
	mov	rsi, rdi
.LVL45:
	.loc 1 100 0
	xor	r10d, r10d
	xor	r9d, r9d
	movss	xmm2, DWORD PTR .LC0[rip]
.LVL46:
	.p2align 4,,10
	.p2align 3
.L48:
	pxor	xmm0, xmm0
	add	r9d, 1
.LVL47:
	mov	rax, rsi
	and	eax, 15
	movaps	xmm1, xmm2
	shr	rax, 2
	cvtsi2ss	xmm0, r9d
	neg	rax
	and	eax, 3
	divss	xmm1, xmm0
	je	.L63
	cmp	eax, 1
.LBB136:
.LBB137:
	.loc 1 103 0
	movss	DWORD PTR [rsi], xmm1
.LVL48:
	je	.L64
	cmp	eax, 3
	movss	DWORD PTR 4[rsi], xmm1
.LVL49:
	jne	.L65
	movss	DWORD PTR 8[rsi], xmm1
.LVL50:
	mov	r11d, 177
	.loc 1 102 0
	mov	r8d, 3
.LVL51:
.L51:
	mov	ebx, 180
	mov	edx, eax
	mov	ebp, 176
	sub	ebx, eax
	mov	ecx, 44
.L50:
	movaps	xmm0, xmm1
	add	rdx, r10
.LBE137:
.LBE136:
	.loc 1 96 0
	xor	eax, eax
	lea	rdx, [rdi+rdx*4]
	shufps	xmm0, xmm0, 0
	.p2align 4,,10
	.p2align 3
.L44:
	add	eax, 1
	add	rdx, 16
.LBB141:
.LBB138:
	.loc 1 103 0 discriminator 3
	movaps	XMMWORD PTR -16[rdx], xmm0
	cmp	ecx, eax
	ja	.L44
	sub	r11d, ebp
	cmp	ebp, ebx
	lea	eax, 0[rbp+r8]
	je	.L46
.LVL52:
	.loc 1 103 0 is_stmt 0
	movsx	rdx, eax
	.loc 1 102 0 is_stmt 1
	cmp	r11d, 1
	.loc 1 103 0
	movss	DWORD PTR [rsi+rdx*4], xmm1
	.loc 1 102 0
	lea	edx, 1[rax]
.LVL53:
	je	.L46
	.loc 1 103 0
	movsx	rdx, edx
	.loc 1 102 0
	add	eax, 2
	cmp	r11d, 2
	.loc 1 103 0
	movss	DWORD PTR [rsi+rdx*4], xmm1
.LVL54:
	.loc 1 102 0
	je	.L46
	.loc 1 103 0
	cdqe
	movss	DWORD PTR [rsi+rax*4], xmm1
.L46:
.LVL55:
	add	rsi, 720
	add	r10, 180
.LBE138:
	.loc 1 101 0
	cmp	r9d, 180
	jne	.L48
	jmp	.L49
.LVL56:
	.p2align 4,,10
	.p2align 3
.L63:
.LBB139:
	.loc 1 102 0
	mov	ebp, 180
	mov	ecx, 45
	mov	ebx, 180
	xor	edx, edx
	mov	r11d, 180
	xor	r8d, r8d
	jmp	.L50
.LVL57:
.L65:
	.loc 1 103 0
	mov	r11d, 178
	.loc 1 102 0
	mov	r8d, 2
	jmp	.L51
.LVL58:
.L64:
	.loc 1 103 0
	mov	r11d, 179
	.loc 1 102 0
	mov	r8d, 1
	jmp	.L51
.LVL59:
.L91:
	mov	rsi, rdi
.LVL60:
.LBE139:
.LBE141:
	.loc 1 106 0
	xor	r10d, r10d
	xor	r9d, r9d
	movss	xmm2, DWORD PTR .LC0[rip]
.LVL61:
	.p2align 4,,10
	.p2align 3
.L58:
	add	r9d, 1
.LVL62:
	pxor	xmm0, xmm0
	mov	eax, r9d
	movaps	xmm1, xmm2
	imul	eax, r9d
	cvtsi2ss	xmm0, eax
	mov	rax, rsi
	and	eax, 15
	shr	rax, 2
	neg	rax
	and	eax, 3
	divss	xmm1, xmm0
	je	.L66
	cmp	eax, 1
.LBB142:
.LBB132:
.LBB129:
	.loc 1 109 0
	movss	DWORD PTR [rsi], xmm1
.LVL63:
	je	.L67
	cmp	eax, 3
	movss	DWORD PTR 4[rsi], xmm1
.LVL64:
	jne	.L68
	movss	DWORD PTR 8[rsi], xmm1
.LVL65:
	mov	r11d, 177
	.loc 1 108 0
	mov	r8d, 3
.LVL66:
.L60:
	mov	ebx, 180
	mov	edx, eax
	mov	ebp, 176
	sub	ebx, eax
	mov	ecx, 44
.L59:
	movaps	xmm0, xmm1
	add	rdx, r10
.LBE129:
.LBE132:
.LBE142:
.LBB143:
.LBB140:
	.loc 1 102 0
	xor	eax, eax
	lea	rdx, [rdi+rdx*4]
	shufps	xmm0, xmm0, 0
	.p2align 4,,10
	.p2align 3
.L54:
	add	eax, 1
	add	rdx, 16
.LBE140:
.LBE143:
.LBB144:
.LBB133:
.LBB130:
	.loc 1 109 0
	movaps	XMMWORD PTR -16[rdx], xmm0
	cmp	eax, ecx
	jb	.L54
	sub	r11d, ebp
	cmp	ebp, ebx
	lea	eax, 0[rbp+r8]
	je	.L56
.LVL67:
	movsx	rdx, eax
	.loc 1 108 0
	cmp	r11d, 1
	.loc 1 109 0
	movss	DWORD PTR [rsi+rdx*4], xmm1
	.loc 1 108 0
	lea	edx, 1[rax]
.LVL68:
	je	.L56
	.loc 1 109 0
	movsx	rdx, edx
	.loc 1 108 0
	add	eax, 2
	cmp	r11d, 2
	.loc 1 109 0
	movss	DWORD PTR [rsi+rdx*4], xmm1
.LVL69:
	.loc 1 108 0
	je	.L56
	.loc 1 109 0
	cdqe
	movss	DWORD PTR [rsi+rax*4], xmm1
.L56:
.LVL70:
	add	rsi, 720
	add	r10, 180
.LBE130:
	.loc 1 107 0
	cmp	r9d, 180
	jne	.L58
	jmp	.L49
.LVL71:
	.p2align 4,,10
	.p2align 3
.L66:
.LBB131:
	.loc 1 108 0
	mov	ebp, 180
	mov	ecx, 45
	mov	ebx, 180
	xor	edx, edx
	mov	r11d, 180
	xor	r8d, r8d
	jmp	.L59
.LVL72:
.L68:
	.loc 1 109 0
	mov	r11d, 178
	.loc 1 108 0
	mov	r8d, 2
	jmp	.L60
.LVL73:
.L67:
	.loc 1 109 0
	mov	r11d, 179
	.loc 1 108 0
	mov	r8d, 1
	jmp	.L60
.LBE131:
.LBE133:
.LBE144:
	.cfi_endproc
.LFE571:
	.size	set2d, .-set2d
	.section	.text.unlikely
.LCOLDE10:
	.text
.LHOTE10:
	.section	.rodata.str1.1,"aMS",@progbits,1
.LC12:
	.string	"%f \n"
	.section	.text.unlikely
.LCOLDB13:
	.text
.LHOTB13:
	.p2align 4,,15
	.globl	check
	.type	check, @function
check:
.LFB572:
	.loc 1 122 0
	.cfi_startproc
.LVL74:
	pxor	xmm4, xmm4
	sub	rsp, 8
	.cfi_def_cfa_offset 16
	mov	r9, QWORD PTR a@GOTPCREL[rip]
	mov	r8, QWORD PTR b@GOTPCREL[rip]
	.loc 1 122 0
	xor	eax, eax
	mov	rsi, QWORD PTR c@GOTPCREL[rip]
	mov	rcx, QWORD PTR d@GOTPCREL[rip]
	mov	rdx, QWORD PTR e@GOTPCREL[rip]
	movaps	xmm3, xmm4
	movaps	xmm2, xmm4
	movaps	xmm1, xmm4
	movaps	xmm0, xmm4
.LVL75:
	.p2align 4,,10
	.p2align 3
.L93:
.LBB145:
	.loc 1 130 0 discriminator 3
	addps	xmm0, XMMWORD PTR [rax+r9]
	add	rax, 16
	.loc 1 131 0 discriminator 3
	addps	xmm1, XMMWORD PTR -16[rax+r8]
	.loc 1 132 0 discriminator 3
	addps	xmm2, XMMWORD PTR -16[rax+rsi]
	.loc 1 133 0 discriminator 3
	addps	xmm3, XMMWORD PTR -16[rax+rcx]
	.loc 1 134 0 discriminator 3
	addps	xmm4, XMMWORD PTR -16[rax+rdx]
	cmp	rax, 128000
	jne	.L93
	movaps	xmm5, xmm4
	mov	rdx, QWORD PTR aa@GOTPCREL[rip]
	.loc 1 134 0 is_stmt 0
	pxor	xmm6, xmm6
	mov	rsi, QWORD PTR bb@GOTPCREL[rip]
	movhlps	xmm5, xmm4
	mov	rcx, QWORD PTR cc@GOTPCREL[rip]
	lea	r8, 129600[rdx]
	addps	xmm4, xmm5
	movaps	xmm9, xmm4
	shufps	xmm9, xmm4, 85
	addps	xmm4, xmm9
	movaps	xmm9, xmm4
	movaps	xmm4, xmm3
	movhlps	xmm4, xmm3
	addps	xmm3, xmm4
	movaps	xmm4, xmm6
	movaps	xmm10, xmm3
	shufps	xmm10, xmm3, 85
	addps	xmm3, xmm10
	movaps	xmm10, xmm3
	movaps	xmm3, xmm2
	movhlps	xmm3, xmm2
	addps	xmm2, xmm3
	movaps	xmm3, xmm6
	movaps	xmm8, xmm2
	shufps	xmm8, xmm2, 85
	addps	xmm2, xmm8
	movaps	xmm8, xmm2
	movaps	xmm2, xmm1
	movhlps	xmm2, xmm1
	addps	xmm1, xmm2
	movaps	xmm5, xmm1
	shufps	xmm5, xmm1, 85
	addps	xmm1, xmm5
	movaps	xmm5, xmm1
	movaps	xmm1, xmm0
	movhlps	xmm1, xmm0
	addps	xmm0, xmm1
	movaps	xmm7, xmm0
	shufps	xmm7, xmm0, 85
	addps	xmm0, xmm7
	movaps	xmm7, xmm0
	.p2align 4,,10
	.p2align 3
.L94:
.LVL76:
.LBE145:
	.loc 1 122 0 is_stmt 1
	pxor	xmm0, xmm0
	xor	eax, eax
	movaps	xmm2, xmm0
	movaps	xmm1, xmm0
.LVL77:
	.p2align 4,,10
	.p2align 3
.L95:
.LBB146:
.LBB147:
	.loc 1 141 0 discriminator 3
	addps	xmm1, XMMWORD PTR [rdx+rax]
	.loc 1 142 0 discriminator 3
	addps	xmm2, XMMWORD PTR [rsi+rax]
	.loc 1 143 0 discriminator 3
	addps	xmm0, XMMWORD PTR [rcx+rax]
	add	rax, 16
	cmp	rax, 720
	jne	.L95
	movaps	xmm11, xmm0
	add	rdx, 720
	add	rsi, 720
	add	rcx, 720
.LBE147:
	.loc 1 139 0 discriminator 2
	cmp	rdx, r8
	movhlps	xmm11, xmm0
	addps	xmm0, xmm11
	movaps	xmm11, xmm0
	shufps	xmm11, xmm0, 85
	addps	xmm0, xmm11
	addss	xmm6, xmm0
	movaps	xmm0, xmm2
	movhlps	xmm0, xmm2
	addps	xmm2, xmm0
	movaps	xmm0, xmm2
	shufps	xmm0, xmm2, 85
	addps	xmm2, xmm0
	movaps	xmm0, xmm1
	movhlps	xmm0, xmm1
	addps	xmm1, xmm0
	addss	xmm4, xmm2
	movaps	xmm0, xmm1
	shufps	xmm0, xmm1, 85
	addps	xmm1, xmm0
	addss	xmm3, xmm1
.LVL78:
	jne	.L94
	mov	rax, QWORD PTR array@GOTPCREL[rip]
	.loc 1 139 0 is_stmt 0
	pxor	xmm0, xmm0
	lea	rdx, 129600[rax]
	.p2align 4,,10
	.p2align 3
.L97:
.LBE146:
.LBB148:
	.loc 1 149 0 is_stmt 1 discriminator 3
	addps	xmm0, XMMWORD PTR [rax]
.LVL79:
	add	rax, 16
	cmp	rax, rdx
	jne	.L97
	movaps	xmm1, xmm0
.LBE148:
	.loc 1 152 0
	cmp	edi, 1
	movhlps	xmm1, xmm0
	addps	xmm0, xmm1
	movaps	xmm1, xmm0
	shufps	xmm1, xmm0, 85
	addps	xmm0, xmm1
	je	.L124
	.loc 1 153 0
	cmp	edi, 2
	je	.L125
	.loc 1 154 0
	cmp	edi, 3
	je	.L126
	.loc 1 155 0
	cmp	edi, 4
	je	.L127
	.loc 1 156 0
	cmp	edi, 5
	je	.L128
	.loc 1 157 0
	cmp	edi, 11
	je	.L129
	.loc 1 158 0
	cmp	edi, 22
	je	.L130
	.loc 1 159 0
	cmp	edi, 33
	je	.L131
	.loc 1 160 0
	test	edi, edi
	je	.L121
	.loc 1 161 0
	cmp	edi, 12
	je	.L132
	.loc 1 162 0
	cmp	edi, 25
	je	.L133
	.loc 1 163 0
	cmp	edi, 13
.LBB149:
.LBB150:
	.file 2 "/usr/include/x86_64-linux-gnu/bits/stdio2.h"
	.loc 2 104 0
	movaps	xmm0, xmm8
.LBE150:
.LBE149:
	.loc 1 163 0
	je	.L120
	.loc 1 164 0
	cmp	edi, 123
	je	.L134
	.loc 1 165 0
	cmp	edi, 1122
	je	.L135
	.loc 1 166 0
	cmp	edi, 112233
	je	.L136
	.loc 1 167 0
	cmp	edi, 111
	je	.L137
	.loc 1 168 0
	cmp	edi, -1
	je	.L138
	.loc 1 169 0
	cmp	edi, -12
	je	.L139
	.loc 1 171 0
	add	rsp, 8
	.cfi_remember_state
	.cfi_def_cfa_offset 8
	ret
.L124:
	.cfi_restore_state
.LVL80:
.LBB151:
.LBB152:
	.loc 2 104 0 discriminator 1
	pxor	xmm0, xmm0
	lea	rsi, .LC12[rip]
	mov	eax, 1
	cvtss2sd	xmm0, xmm7
	call	__printf_chk@PLT
.LVL81:
.LBE152:
.LBE151:
	.loc 1 171 0 discriminator 1
	add	rsp, 8
	.cfi_remember_state
	.cfi_def_cfa_offset 8
	ret
.LVL82:
.L139:
	.cfi_restore_state
	.loc 1 169 0 discriminator 1
	mov	rax, QWORD PTR temp@GOTPCREL[rip]
.LBB153:
.LBB154:
	.loc 2 104 0 discriminator 1
	addss	xmm5, DWORD PTR [rax]
	movaps	xmm0, xmm5
.LVL83:
.L122:
	cvtss2sd	xmm0, xmm0
.L123:
	lea	rsi, .LC12[rip]
	mov	edi, 1
.LVL84:
	mov	eax, 1
.LBE154:
.LBE153:
	.loc 1 171 0 discriminator 1
	add	rsp, 8
	.cfi_remember_state
	.cfi_def_cfa_offset 8
.LBB156:
.LBB155:
	.loc 2 104 0 discriminator 1
	jmp	__printf_chk@PLT
.LVL85:
.L138:
	.cfi_restore_state
.LBE155:
.LBE156:
	.loc 1 168 0 discriminator 1
	mov	rax, QWORD PTR temp@GOTPCREL[rip]
.LBB157:
.LBB158:
	.loc 2 104 0 discriminator 1
	pxor	xmm0, xmm0
	cvtss2sd	xmm0, DWORD PTR [rax]
	jmp	.L123
.LVL86:
.L137:
.LBE158:
.LBE157:
.LBB159:
.LBB160:
	addss	xmm7, xmm3
	movaps	xmm0, xmm7
	jmp	.L122
.LVL87:
.L136:
.LBE160:
.LBE159:
.LBB161:
.LBB162:
	addss	xmm6, xmm4
.LVL88:
	movaps	xmm0, xmm6
	addss	xmm0, xmm3
	jmp	.L122
.LVL89:
.L135:
.LBE162:
.LBE161:
.LBB163:
.LBB164:
	addss	xmm4, xmm3
.LVL90:
	movaps	xmm0, xmm4
	jmp	.L122
.LVL91:
.L134:
.LBE164:
.LBE163:
.LBB165:
.LBB166:
	movaps	xmm0, xmm8
	addss	xmm0, xmm5
.LVL92:
.L120:
	addss	xmm0, xmm7
.L121:
	cvtss2sd	xmm0, xmm0
	lea	rsi, .LC12[rip]
	mov	edi, 1
.LVL93:
	mov	eax, 1
	call	__printf_chk@PLT
.LVL94:
.LBE166:
.LBE165:
	.loc 1 171 0 discriminator 1
	add	rsp, 8
	.cfi_remember_state
	.cfi_def_cfa_offset 8
	ret
.LVL95:
.L131:
	.cfi_restore_state
.LBB167:
.LBB168:
	.loc 2 104 0 discriminator 1
	pxor	xmm0, xmm0
	lea	rsi, .LC12[rip]
	mov	edi, 1
.LVL96:
	mov	eax, 1
	cvtss2sd	xmm0, xmm6
	call	__printf_chk@PLT
.LVL97:
.LBE168:
.LBE167:
	.loc 1 171 0 discriminator 1
	add	rsp, 8
	.cfi_remember_state
	.cfi_def_cfa_offset 8
	ret
.LVL98:
.L133:
	.cfi_restore_state
.LBB169:
.LBB170:
	.loc 2 104 0 discriminator 1
	addss	xmm5, xmm9
	movaps	xmm0, xmm5
	jmp	.L121
.LVL99:
.L132:
.LBE170:
.LBE169:
.LBB171:
.LBB172:
	addss	xmm5, xmm7
	movaps	xmm0, xmm5
	jmp	.L121
.LVL100:
.L130:
.LBE172:
.LBE171:
.LBB173:
.LBB174:
	pxor	xmm0, xmm0
	lea	rsi, .LC12[rip]
	mov	edi, 1
.LVL101:
	mov	eax, 1
	cvtss2sd	xmm0, xmm4
	call	__printf_chk@PLT
.LVL102:
.LBE174:
.LBE173:
	.loc 1 171 0 discriminator 1
	add	rsp, 8
	.cfi_remember_state
	.cfi_def_cfa_offset 8
	ret
.LVL103:
.L129:
	.cfi_restore_state
.LBB175:
.LBB176:
	.loc 2 104 0 discriminator 1
	pxor	xmm0, xmm0
	lea	rsi, .LC12[rip]
	mov	edi, 1
.LVL104:
	mov	eax, 1
	cvtss2sd	xmm0, xmm3
	call	__printf_chk@PLT
.LVL105:
.LBE176:
.LBE175:
	.loc 1 171 0 discriminator 1
	add	rsp, 8
	.cfi_remember_state
	.cfi_def_cfa_offset 8
	ret
.LVL106:
.L128:
	.cfi_restore_state
.LBB177:
.LBB178:
	.loc 2 104 0 discriminator 1
	pxor	xmm0, xmm0
	lea	rsi, .LC12[rip]
	mov	edi, 1
.LVL107:
	mov	eax, 1
	cvtss2sd	xmm0, xmm9
	call	__printf_chk@PLT
.LVL108:
.LBE178:
.LBE177:
	.loc 1 171 0 discriminator 1
	add	rsp, 8
	.cfi_remember_state
	.cfi_def_cfa_offset 8
	ret
.LVL109:
.L127:
	.cfi_restore_state
.LBB179:
.LBB180:
	.loc 2 104 0 discriminator 1
	pxor	xmm0, xmm0
	lea	rsi, .LC12[rip]
	mov	edi, 1
.LVL110:
	mov	eax, 1
	cvtss2sd	xmm0, xmm10
	call	__printf_chk@PLT
.LVL111:
.LBE180:
.LBE179:
	.loc 1 171 0 discriminator 1
	add	rsp, 8
	.cfi_remember_state
	.cfi_def_cfa_offset 8
	ret
.LVL112:
.L126:
	.cfi_restore_state
.LBB181:
.LBB182:
	.loc 2 104 0 discriminator 1
	pxor	xmm0, xmm0
	lea	rsi, .LC12[rip]
	mov	edi, 1
.LVL113:
	mov	eax, 1
	cvtss2sd	xmm0, xmm8
	call	__printf_chk@PLT
.LVL114:
.LBE182:
.LBE181:
	.loc 1 171 0 discriminator 1
	add	rsp, 8
	.cfi_remember_state
	.cfi_def_cfa_offset 8
	ret
.LVL115:
.L125:
	.cfi_restore_state
.LBB183:
.LBB184:
	.loc 2 104 0 discriminator 1
	pxor	xmm0, xmm0
	lea	rsi, .LC12[rip]
	mov	edi, 1
.LVL116:
	mov	eax, 1
	cvtss2sd	xmm0, xmm5
	call	__printf_chk@PLT
.LVL117:
.LBE184:
.LBE183:
	.loc 1 171 0 discriminator 1
	add	rsp, 8
	.cfi_def_cfa_offset 8
	ret
	.cfi_endproc
.LFE572:
	.size	check, .-check
	.section	.text.unlikely
.LCOLDE13:
	.text
.LHOTE13:
	.section	.rodata.str1.1
.LC14:
	.string	"s242 "
.LC16:
	.string	"s112 "
.LC17:
	.string	"s312 "
	.section	.text.unlikely
.LCOLDB19:
	.text
.LHOTB19:
	.p2align 4,,15
	.globl	init
	.type	init, @function
init:
.LFB573:
	.loc 1 174 0
	.cfi_startproc
.LVL118:
	mov	rax, rdi
.LBB196:
	.loc 1 185 0
	lea	rdi, .LC14[rip]
.LVL119:
.LBE196:
	.loc 1 174 0
	sub	rsp, 8
	.cfi_def_cfa_offset 16
.LBB197:
	.loc 1 185 0
	mov	ecx, 6
	mov	rsi, rax
.LBE197:
	repz cmpsb
.LVL120:
	je	.L145
.LVL121:
.LBB198:
	.loc 1 190 0 discriminator 2
	lea	rdi, .LC16[rip]
	mov	ecx, 6
	mov	rsi, rax
.LBE198:
	repz cmpsb
	je	.L146
.LVL122:
.LBB199:
	.loc 1 193 0 discriminator 2
	lea	rdi, .LC17[rip]
	mov	ecx, 6
	mov	rsi, rax
.LBE199:
	repz cmpsb
	je	.L147
	.loc 1 198 0
	xor	eax, eax
	add	rsp, 8
	.cfi_remember_state
	.cfi_def_cfa_offset 8
	ret
	.p2align 4,,10
	.p2align 3
.L147:
	.cfi_restore_state
	.loc 1 194 0
	mov	rdi, QWORD PTR a@GOTPCREL[rip]
	mov	esi, 1
	movss	xmm0, DWORD PTR .LC18[rip]
	call	set1d@PLT
.LVL123:
	.loc 1 198 0
	xor	eax, eax
	add	rsp, 8
	.cfi_remember_state
	.cfi_def_cfa_offset 8
	ret
.LVL124:
	.p2align 4,,10
	.p2align 3
.L145:
	.cfi_restore_state
.LBB200:
.LBB201:
	.loc 1 186 0
	mov	rdi, QWORD PTR a@GOTPCREL[rip]
	mov	esi, 1
	movss	xmm0, DWORD PTR .LC15[rip]
	call	set1d@PLT
.LVL125:
	.loc 1 187 0
	mov	rdi, QWORD PTR b@GOTPCREL[rip]
	mov	esi, 1
	movss	xmm0, DWORD PTR .LC15[rip]
	call	set1d@PLT
.LVL126:
	.loc 1 188 0
	mov	rdi, QWORD PTR c@GOTPCREL[rip]
	mov	esi, 1
	movss	xmm0, DWORD PTR .LC15[rip]
	call	set1d@PLT
.LVL127:
	.loc 1 189 0
	mov	rdi, QWORD PTR d@GOTPCREL[rip]
	mov	esi, 1
	movss	xmm0, DWORD PTR .LC15[rip]
	call	set1d@PLT
.LVL128:
.LBE201:
.LBE200:
	.loc 1 198 0
	xor	eax, eax
	add	rsp, 8
	.cfi_remember_state
	.cfi_def_cfa_offset 8
	ret
.LVL129:
	.p2align 4,,10
	.p2align 3
.L146:
	.cfi_restore_state
	.loc 1 191 0
	mov	rdi, QWORD PTR a@GOTPCREL[rip]
	mov	esi, 1
	movss	xmm0, DWORD PTR .LC0[rip]
	call	set1d@PLT
.LVL130:
	.loc 1 192 0
	pxor	xmm0, xmm0
	mov	rdi, QWORD PTR b@GOTPCREL[rip]
	mov	esi, -2
	call	set1d@PLT
.LVL131:
	.loc 1 198 0
	xor	eax, eax
	add	rsp, 8
	.cfi_def_cfa_offset 8
	ret
	.cfi_endproc
.LFE573:
	.size	init, .-init
	.section	.text.unlikely
.LCOLDE19:
	.text
.LHOTE19:
	.section	.rodata.str1.1
.LC20:
	.string	"\n"
	.section	.text.unlikely
.LCOLDB23:
	.text
.LHOTB23:
	.p2align 4,,15
	.globl	set
	.type	set, @function
set:
.LFB574:
	.loc 1 200 0
	.cfi_startproc
.LVL132:
	push	r12
	.cfi_def_cfa_offset 16
	.cfi_offset 12, -16
	push	rbp
	.cfi_def_cfa_offset 24
	.cfi_offset 6, -24
	mov	r12, rsi
	push	rbx
	.cfi_def_cfa_offset 32
	.cfi_offset 3, -32
	.loc 1 201 0
	mov	esi, 128000
.LVL133:
	.loc 1 200 0
	mov	rbx, rdi
	.loc 1 201 0
	mov	edi, 16
.LVL134:
	.loc 1 200 0
	mov	rbp, rdx
	.loc 1 201 0
	call	memalign@PLT
.LVL135:
	mov	rdx, QWORD PTR xx@GOTPCREL[rip]
.LBB202:
.LBB203:
	.loc 2 104 0
	lea	rsi, .LC20[rip]
	mov	edi, 1
.LBE203:
.LBE202:
	.loc 1 201 0
	mov	QWORD PTR [rdx], rax
.LVL136:
.LBB205:
.LBB204:
	.loc 2 104 0
	xor	eax, eax
	call	__printf_chk@PLT
.LVL137:
	mov	rdi, rbx
.LBE204:
.LBE205:
.LBB206:
	.loc 1 203 0
	xor	eax, eax
.LVL138:
	.p2align 4,,10
	.p2align 3
.L149:
	.loc 1 204 0 discriminator 3
	lea	edx, 4[rax]
	.loc 1 206 0 discriminator 3
	mov	DWORD PTR 8[rdi], eax
	add	rdi, 20
	.loc 1 204 0 discriminator 3
	mov	DWORD PTR -20[rdi], edx
	.loc 1 205 0 discriminator 3
	lea	edx, 2[rax]
	mov	DWORD PTR -16[rdi], edx
	.loc 1 207 0 discriminator 3
	lea	edx, 3[rax]
	mov	DWORD PTR -8[rdi], edx
	.loc 1 208 0 discriminator 3
	lea	edx, 1[rax]
	.loc 1 203 0 discriminator 3
	add	eax, 5
.LVL139:
	.loc 1 208 0 discriminator 3
	mov	DWORD PTR -4[rdi], edx
	.loc 1 203 0 discriminator 3
	cmp	eax, 32000
	jne	.L149
.LBE206:
	.loc 1 212 0
	mov	rdi, QWORD PTR a@GOTPCREL[rip]
	mov	esi, 1
	movss	xmm0, DWORD PTR .LC0[rip]
	call	set1d@PLT
.LVL140:
	.loc 1 213 0
	mov	rdi, QWORD PTR b@GOTPCREL[rip]
	mov	esi, 1
	movss	xmm0, DWORD PTR .LC0[rip]
	call	set1d@PLT
.LVL141:
	.loc 1 214 0
	mov	rdi, QWORD PTR c@GOTPCREL[rip]
	mov	esi, 1
	movss	xmm0, DWORD PTR .LC0[rip]
	call	set1d@PLT
.LVL142:
	.loc 1 215 0
	mov	rdi, QWORD PTR d@GOTPCREL[rip]
	mov	esi, 1
	movss	xmm0, DWORD PTR .LC0[rip]
	call	set1d@PLT
.LVL143:
	.loc 1 216 0
	mov	rdi, QWORD PTR e@GOTPCREL[rip]
	mov	esi, 1
	movss	xmm0, DWORD PTR .LC0[rip]
	call	set1d@PLT
.LVL144:
	.loc 1 217 0
	pxor	xmm0, xmm0
	mov	rdi, QWORD PTR aa@GOTPCREL[rip]
	mov	esi, -1
	call	set2d@PLT
.LVL145:
	.loc 1 218 0
	pxor	xmm0, xmm0
	mov	rdi, QWORD PTR bb@GOTPCREL[rip]
	mov	esi, -1
	call	set2d@PLT
.LVL146:
	.loc 1 219 0
	pxor	xmm0, xmm0
	mov	rdi, QWORD PTR cc@GOTPCREL[rip]
	mov	esi, -1
	call	set2d@PLT
.LVL147:
	mov	rax, QWORD PTR indx@GOTPCREL[rip]
	movdqa	xmm1, XMMWORD PTR .LC3[rip]
	lea	rdx, 128000[rax]
	movdqa	xmm4, XMMWORD PTR .LC4[rip]
	movdqa	xmm2, XMMWORD PTR .LC5[rip]
	movdqa	xmm3, XMMWORD PTR .LC21[rip]
.LVL148:
	.p2align 4,,10
	.p2align 3
.L150:
.LBB207:
	.loc 1 222 0 discriminator 3
	movdqa	xmm0, xmm1
	add	rax, 16
	paddd	xmm1, xmm4
	paddd	xmm0, xmm2
	pand	xmm0, xmm3
	paddd	xmm0, xmm2
	movaps	XMMWORD PTR -16[rax], xmm0
	cmp	rax, rdx
	jne	.L150
.LBE207:
	.loc 1 224 0
	mov	DWORD PTR [r12], 0x3f800000
	.loc 1 225 0
	mov	DWORD PTR 0[rbp], 0x40000000
	.loc 1 227 0
	pop	rbx
	.cfi_def_cfa_offset 24
.LVL149:
	pop	rbp
	.cfi_def_cfa_offset 16
.LVL150:
	pop	r12
	.cfi_def_cfa_offset 8
.LVL151:
	ret
	.cfi_endproc
.LFE574:
	.size	set, .-set
	.section	.text.unlikely
.LCOLDE23:
	.text
.LHOTE23:
	.section	.rodata.str1.1
.LC25:
	.string	"S242\t %.2f \t\t"
	.section	.text.unlikely
.LCOLDB26:
	.text
.LHOTB26:
	.p2align 4,,15
	.globl	s242
	.type	s242, @function
s242:
.LFB575:
	.loc 1 232 0
	.cfi_startproc
.LVL152:
	addss	xmm1, xmm0
.LVL153:
	push	r15
	.cfi_def_cfa_offset 16
	.cfi_offset 15, -16
	push	r14
	.cfi_def_cfa_offset 24
	.cfi_offset 14, -24
	push	r13
	.cfi_def_cfa_offset 32
	.cfi_offset 13, -32
	push	r12
	.cfi_def_cfa_offset 40
	.cfi_offset 12, -40
	.loc 1 239 0
	lea	rdi, .LC14[rip]
	.loc 1 232 0
	push	rbp
	.cfi_def_cfa_offset 48
	.cfi_offset 6, -48
	push	rbx
	.cfi_def_cfa_offset 56
	.cfi_offset 3, -56
	.loc 1 240 0
	mov	r12d, 200000
	.loc 1 232 0
	sub	rsp, 24
	.cfi_def_cfa_offset 80
	movss	DWORD PTR 4[rsp], xmm1
	.loc 1 239 0
	call	init@PLT
.LVL154:
	.loc 1 240 0
	call	clock@PLT
.LVL155:
	mov	r14, QWORD PTR b@GOTPCREL[rip]
	mov	r13, QWORD PTR c@GOTPCREL[rip]
	mov	rbp, QWORD PTR d@GOTPCREL[rip]
	mov	rbx, QWORD PTR a@GOTPCREL[rip]
	mov	r15, QWORD PTR cc@GOTPCREL[rip]
	mov	QWORD PTR 8[rsp], rax
.LVL156:
	movss	xmm1, DWORD PTR 4[rsp]
.LVL157:
	.p2align 4,,10
	.p2align 3
.L155:
	movss	xmm0, DWORD PTR [rbx]
	.loc 1 232 0
	xor	eax, eax
.LVL158:
	.p2align 4,,10
	.p2align 3
.L156:
.LBB208:
.LBB209:
	.loc 1 244 0 discriminator 3
	movss	xmm2, DWORD PTR 4[rax+r14]
	addss	xmm0, xmm1
	addss	xmm2, DWORD PTR 4[rax+r13]
	addss	xmm0, xmm2
	addss	xmm0, DWORD PTR 4[rax+rbp]
	movss	DWORD PTR 4[rbx+rax], xmm0
	add	rax, 4
	.loc 1 243 0 discriminator 3
	cmp	rax, 127996
	jne	.L156
.LBE209:
	.loc 1 246 0 discriminator 2
	pxor	xmm0, xmm0
	mov	r9, QWORD PTR aa@GOTPCREL[rip]
	mov	r8, QWORD PTR e@GOTPCREL[rip]
	movss	DWORD PTR 4[rsp], xmm1
	push	r15
	.cfi_def_cfa_offset 88
	push	QWORD PTR bb@GOTPCREL[rip]
	.cfi_def_cfa_offset 96
	mov	rdx, r13
	mov	rcx, rbp
	mov	rsi, r14
	mov	rdi, rbx
	call	dummy@PLT
.LVL159:
	.loc 1 242 0 discriminator 2
	pop	rax
	.cfi_def_cfa_offset 88
	pop	rdx
	.cfi_def_cfa_offset 80
	sub	r12d, 1
	movss	xmm1, DWORD PTR 4[rsp]
	jne	.L155
.LBE208:
	.loc 1 248 0
	call	clock@PLT
.LVL160:
.LBB210:
.LBB211:
	.loc 2 104 0
	sub	rax, QWORD PTR 8[rsp]
.LVL161:
	pxor	xmm0, xmm0
	lea	rsi, .LC25[rip]
	mov	edi, 1
	cvtsi2sdq	xmm0, rax
	mov	eax, 1
.LVL162:
	mulsd	xmm0, QWORD PTR .LC24[rip]
	call	__printf_chk@PLT
.LVL163:
.LBE211:
.LBE210:
	.loc 1 251 0
	mov	edi, 1
	call	check@PLT
.LVL164:
	.loc 1 253 0
	add	rsp, 24
	.cfi_def_cfa_offset 56
	xor	eax, eax
	pop	rbx
	.cfi_def_cfa_offset 48
	pop	rbp
	.cfi_def_cfa_offset 40
	pop	r12
	.cfi_def_cfa_offset 32
	pop	r13
	.cfi_def_cfa_offset 24
	pop	r14
	.cfi_def_cfa_offset 16
	pop	r15
	.cfi_def_cfa_offset 8
	ret
	.cfi_endproc
.LFE575:
	.size	s242, .-s242
	.section	.text.unlikely
.LCOLDE26:
	.text
.LHOTE26:
	.section	.rodata.str1.1
.LC27:
	.string	"s275 "
.LC28:
	.string	"S2275\t %.2f \t\t"
	.section	.text.unlikely
.LCOLDB29:
	.text
.LHOTB29:
	.p2align 4,,15
	.globl	s2275
	.type	s2275, @function
s2275:
.LFB576:
	.loc 1 255 0
	.cfi_startproc
	push	r15
	.cfi_def_cfa_offset 16
	.cfi_offset 15, -16
	push	r14
	.cfi_def_cfa_offset 24
	.cfi_offset 14, -24
	.loc 1 262 0
	lea	rdi, .LC27[rip]
	.loc 1 255 0
	push	r13
	.cfi_def_cfa_offset 32
	.cfi_offset 13, -32
	push	r12
	.cfi_def_cfa_offset 40
	.cfi_offset 12, -40
	.loc 1 263 0
	mov	r13d, 200000
	.loc 1 255 0
	push	rbp
	.cfi_def_cfa_offset 48
	.cfi_offset 6, -48
	push	rbx
	.cfi_def_cfa_offset 56
	.cfi_offset 3, -56
	sub	rsp, 8
	.cfi_def_cfa_offset 64
	.loc 1 262 0
	call	init@PLT
.LVL165:
	.loc 1 263 0
	call	clock@PLT
.LVL166:
	mov	r14, QWORD PTR a@GOTPCREL[rip]
	mov	r12, QWORD PTR c@GOTPCREL[rip]
	mov	r15, rax
.LVL167:
	mov	rbp, QWORD PTR cc@GOTPCREL[rip]
	mov	rbx, QWORD PTR bb@GOTPCREL[rip]
.LVL168:
.L161:
	mov	rdx, QWORD PTR aa@GOTPCREL[rip]
	.loc 1 255 0
	xor	edi, edi
.LVL169:
	.p2align 4,,10
	.p2align 3
.L165:
	lea	rsi, [rdi+rbp]
	lea	rcx, [rdi+rbx]
.LVL170:
	xor	eax, eax
.LVL171:
	.p2align 4,,10
	.p2align 3
.L162:
.LBB212:
.LBB213:
.LBB214:
	.loc 1 268 0 discriminator 3
	movaps	xmm0, XMMWORD PTR [rsi+rax]
	mulps	xmm0, XMMWORD PTR [rcx+rax]
	addps	xmm0, XMMWORD PTR [rdx+rax]
	movaps	XMMWORD PTR [rdx+rax], xmm0
	add	rax, 720
	.loc 1 267 0 discriminator 3
	cmp	rax, 129600
	jne	.L162
.LBE214:
	.loc 1 270 0 discriminator 2
	mov	rax, QWORD PTR d@GOTPCREL[rip]
	add	rdi, 16
	add	rdx, 16
	movaps	xmm0, XMMWORD PTR -16[rdi+r12]
	mulps	xmm0, XMMWORD PTR -16[rdi+rax]
	mov	rax, QWORD PTR b@GOTPCREL[rip]
	addps	xmm0, XMMWORD PTR -16[rdi+rax]
	movaps	XMMWORD PTR -16[rdi+r14], xmm0
	cmp	rdi, 720
	jne	.L165
.LBE213:
	.loc 1 272 0 discriminator 2
	pxor	xmm0, xmm0
	mov	r9, QWORD PTR aa@GOTPCREL[rip]
	mov	r8, QWORD PTR e@GOTPCREL[rip]
	mov	rcx, QWORD PTR d@GOTPCREL[rip]
	mov	rdx, r12
	push	rbp
	.cfi_def_cfa_offset 72
	push	rbx
	.cfi_def_cfa_offset 80
	mov	rsi, rax
	mov	rdi, r14
	call	dummy@PLT
.LVL172:
	.loc 1 265 0 discriminator 2
	sub	r13d, 1
	pop	rax
	.cfi_def_cfa_offset 72
	pop	rdx
	.cfi_def_cfa_offset 64
	jne	.L161
.LBE212:
	.loc 1 274 0
	call	clock@PLT
.LVL173:
.LBB215:
.LBB216:
	.loc 2 104 0
	pxor	xmm0, xmm0
	sub	rax, r15
.LVL174:
	lea	rsi, .LC28[rip]
	mov	edi, 1
	cvtsi2sdq	xmm0, rax
	mov	eax, 1
.LVL175:
	mulsd	xmm0, QWORD PTR .LC24[rip]
	call	__printf_chk@PLT
.LVL176:
.LBE216:
.LBE215:
	.loc 1 277 0
	mov	edi, 11
	call	check@PLT
.LVL177:
	.loc 1 279 0
	add	rsp, 8
	.cfi_def_cfa_offset 56
	xor	eax, eax
	pop	rbx
	.cfi_def_cfa_offset 48
	pop	rbp
	.cfi_def_cfa_offset 40
	pop	r12
	.cfi_def_cfa_offset 32
	pop	r13
	.cfi_def_cfa_offset 24
	pop	r14
	.cfi_def_cfa_offset 16
	pop	r15
	.cfi_def_cfa_offset 8
.LVL178:
	ret
	.cfi_endproc
.LFE576:
	.size	s2275, .-s2275
	.section	.text.unlikely
.LCOLDE29:
	.text
.LHOTE29:
	.section	.rodata.str1.1
.LC30:
	.string	"S312\t %.2f \t\t"
	.section	.text.unlikely
.LCOLDB31:
	.text
.LHOTB31:
	.p2align 4,,15
	.globl	s312
	.type	s312, @function
s312:
.LFB577:
	.loc 1 281 0
	.cfi_startproc
	push	r15
	.cfi_def_cfa_offset 16
	.cfi_offset 15, -16
	push	r14
	.cfi_def_cfa_offset 24
	.cfi_offset 14, -24
	.loc 1 289 0
	lea	rdi, .LC17[rip]
	.loc 1 281 0
	push	r13
	.cfi_def_cfa_offset 32
	.cfi_offset 13, -32
	push	r12
	.cfi_def_cfa_offset 40
	.cfi_offset 12, -40
	push	rbp
	.cfi_def_cfa_offset 48
	.cfi_offset 6, -48
	push	rbx
	.cfi_def_cfa_offset 56
	.cfi_offset 3, -56
	.loc 1 290 0
	mov	ebx, 200000
	.loc 1 281 0
	sub	rsp, 24
	.cfi_def_cfa_offset 80
	.loc 1 289 0
	call	init@PLT
.LVL179:
	.loc 1 290 0
	call	clock@PLT
.LVL180:
	mov	rbp, QWORD PTR a@GOTPCREL[rip]
	mov	r15, QWORD PTR cc@GOTPCREL[rip]
	mov	r14, QWORD PTR bb@GOTPCREL[rip]
	mov	r13, QWORD PTR aa@GOTPCREL[rip]
	mov	QWORD PTR 8[rsp], rax
.LVL181:
	lea	r12, 128000[rbp]
.LVL182:
	.p2align 4,,10
	.p2align 3
.L169:
	.loc 1 281 0
	movaps	xmm0, XMMWORD PTR .LC6[rip]
	mov	rax, rbp
.LVL183:
	.p2align 4,,10
	.p2align 3
.L170:
.LBB217:
.LBB218:
	.loc 1 296 0 discriminator 3
	mulps	xmm0, XMMWORD PTR [rax]
	add	rax, 16
	cmp	r12, rax
	jne	.L170
	movaps	xmm2, xmm0
.LBE218:
	.loc 1 298 0 discriminator 2
	mov	rdx, QWORD PTR c@GOTPCREL[rip]
	movaps	xmm1, xmm0
	mov	r8, QWORD PTR e@GOTPCREL[rip]
	unpckhps	xmm2, xmm0
	mov	rcx, QWORD PTR d@GOTPCREL[rip]
	shufps	xmm1, xmm0, 255
	mov	rsi, QWORD PTR b@GOTPCREL[rip]
	mov	r9, r13
	mov	rdi, rbp
	mulss	xmm2, xmm1
	movaps	xmm1, xmm0
	shufps	xmm0, xmm0, 85
	mulss	xmm0, xmm1
	mulss	xmm2, xmm0
	movss	DWORD PTR 4[rsp], xmm2
	movaps	xmm0, xmm2
	push	r15
	.cfi_def_cfa_offset 88
	push	r14
	.cfi_def_cfa_offset 96
	call	dummy@PLT
.LVL184:
	.loc 1 293 0 discriminator 2
	sub	ebx, 1
	pop	rax
	.cfi_def_cfa_offset 88
	pop	rdx
	.cfi_def_cfa_offset 80
	jne	.L169
.LBE217:
	.loc 1 300 0
	call	clock@PLT
.LVL185:
.LBB219:
.LBB220:
	.loc 2 104 0
	sub	rax, QWORD PTR 8[rsp]
.LVL186:
	pxor	xmm0, xmm0
	lea	rsi, .LC30[rip]
	mov	edi, 1
	cvtsi2sdq	xmm0, rax
	mov	eax, 1
.LVL187:
	mulsd	xmm0, QWORD PTR .LC24[rip]
	call	__printf_chk@PLT
.LVL188:
.LBE220:
.LBE219:
	.loc 1 303 0
	mov	rax, QWORD PTR temp@GOTPCREL[rip]
	movss	xmm3, DWORD PTR 4[rsp]
	.loc 1 304 0
	mov	edi, -1
	.loc 1 303 0
	movss	DWORD PTR [rax], xmm3
	.loc 1 304 0
	call	check@PLT
.LVL189:
	.loc 1 306 0
	add	rsp, 24
	.cfi_def_cfa_offset 56
	xor	eax, eax
	pop	rbx
	.cfi_def_cfa_offset 48
	pop	rbp
	.cfi_def_cfa_offset 40
	pop	r12
	.cfi_def_cfa_offset 32
	pop	r13
	.cfi_def_cfa_offset 24
	pop	r14
	.cfi_def_cfa_offset 16
	pop	r15
	.cfi_def_cfa_offset 8
	ret
	.cfi_endproc
.LFE577:
	.size	s312, .-s312
	.section	.text.unlikely
.LCOLDE31:
	.text
.LHOTE31:
	.section	.rodata.str1.1
.LC32:
	.string	"s317 "
.LC34:
	.string	"S317\t %.2f \t\t"
	.section	.text.unlikely
.LCOLDB35:
	.text
.LHOTB35:
	.p2align 4,,15
	.globl	s317
	.type	s317, @function
s317:
.LFB578:
	.loc 1 308 0
	.cfi_startproc
	push	r15
	.cfi_def_cfa_offset 16
	.cfi_offset 15, -16
	push	r14
	.cfi_def_cfa_offset 24
	.cfi_offset 14, -24
	.loc 1 318 0
	lea	rdi, .LC32[rip]
	.loc 1 308 0
	push	r13
	.cfi_def_cfa_offset 32
	.cfi_offset 13, -32
	push	r12
	.cfi_def_cfa_offset 40
	.cfi_offset 12, -40
	push	rbp
	.cfi_def_cfa_offset 48
	.cfi_offset 6, -48
	push	rbx
	.cfi_def_cfa_offset 56
	.cfi_offset 3, -56
	.loc 1 319 0
	mov	ebx, 400000
	.loc 1 308 0
	sub	rsp, 40
	.cfi_def_cfa_offset 96
	.loc 1 318 0
	call	init@PLT
.LVL190:
	.loc 1 319 0
	call	clock@PLT
.LVL191:
	mov	r15, QWORD PTR cc@GOTPCREL[rip]
	mov	r14, QWORD PTR bb@GOTPCREL[rip]
	mov	r13, QWORD PTR aa@GOTPCREL[rip]
	mov	r12, QWORD PTR e@GOTPCREL[rip]
	mov	rbp, QWORD PTR d@GOTPCREL[rip]
	mov	QWORD PTR 24[rsp], rax
.LVL192:
	movaps	xmm2, XMMWORD PTR .LC33[rip]
.LVL193:
	.p2align 4,,10
	.p2align 3
.L175:
	.loc 1 308 0
	xor	eax, eax
	movaps	xmm0, XMMWORD PTR .LC6[rip]
.LVL194:
	.p2align 4,,10
	.p2align 3
.L176:
	add	eax, 1
.LBB221:
.LBB222:
	.loc 1 325 0 discriminator 3
	mulps	xmm0, xmm2
	cmp	eax, 4000
	jne	.L176
	movaps	xmm3, xmm0
.LBE222:
	.loc 1 327 0 discriminator 2
	mov	rdx, QWORD PTR c@GOTPCREL[rip]
	movaps	xmm1, xmm0
	mov	rsi, QWORD PTR b@GOTPCREL[rip]
	shufps	xmm3, xmm0, 85
	mov	rdi, QWORD PTR a@GOTPCREL[rip]
	unpckhps	xmm1, xmm0
	mov	r9, r13
	movaps	XMMWORD PTR [rsp], xmm2
	mulss	xmm3, xmm0
	mov	r8, r12
	mov	rcx, rbp
	shufps	xmm0, xmm0, 255
	mulss	xmm0, xmm1
	mulss	xmm3, xmm0
	movss	DWORD PTR 20[rsp], xmm3
	movaps	xmm0, xmm3
	push	r15
	.cfi_def_cfa_offset 104
	push	r14
	.cfi_def_cfa_offset 112
	call	dummy@PLT
.LVL195:
	.loc 1 322 0 discriminator 2
	pop	rax
	.cfi_def_cfa_offset 104
	pop	rdx
	.cfi_def_cfa_offset 96
	sub	ebx, 1
	movaps	xmm2, XMMWORD PTR [rsp]
	jne	.L175
.LBE221:
	.loc 1 329 0
	call	clock@PLT
.LVL196:
.LBB223:
.LBB224:
	.loc 2 104 0
	sub	rax, QWORD PTR 24[rsp]
.LVL197:
	pxor	xmm0, xmm0
	lea	rsi, .LC34[rip]
	mov	edi, 1
	cvtsi2sdq	xmm0, rax
	mov	eax, 1
.LVL198:
	mulsd	xmm0, QWORD PTR .LC24[rip]
	call	__printf_chk@PLT
.LVL199:
.LBE224:
.LBE223:
	.loc 1 332 0
	mov	rax, QWORD PTR temp@GOTPCREL[rip]
	movss	xmm4, DWORD PTR 20[rsp]
	.loc 1 333 0
	mov	edi, -1
	.loc 1 332 0
	movss	DWORD PTR [rax], xmm4
	.loc 1 333 0
	call	check@PLT
.LVL200:
	.loc 1 335 0
	add	rsp, 40
	.cfi_def_cfa_offset 56
	xor	eax, eax
	pop	rbx
	.cfi_def_cfa_offset 48
	pop	rbp
	.cfi_def_cfa_offset 40
	pop	r12
	.cfi_def_cfa_offset 32
	pop	r13
	.cfi_def_cfa_offset 24
	pop	r14
	.cfi_def_cfa_offset 16
	pop	r15
	.cfi_def_cfa_offset 8
	ret
	.cfi_endproc
.LFE578:
	.size	s317, .-s317
	.section	.text.unlikely
.LCOLDE35:
	.text
.LHOTE35:
	.section	.rodata.str1.1
.LC36:
	.string	"S112\t %.2f \t\t"
	.section	.text.unlikely
.LCOLDB37:
	.text
.LHOTB37:
	.p2align 4,,15
	.globl	s112
	.type	s112, @function
s112:
.LFB579:
	.loc 1 337 0
	.cfi_startproc
	push	r15
	.cfi_def_cfa_offset 16
	.cfi_offset 15, -16
	push	r14
	.cfi_def_cfa_offset 24
	.cfi_offset 14, -24
	.loc 1 345 0
	lea	rdi, .LC16[rip]
	.loc 1 337 0
	push	r13
	.cfi_def_cfa_offset 32
	.cfi_offset 13, -32
	push	r12
	.cfi_def_cfa_offset 40
	.cfi_offset 12, -40
	push	rbp
	.cfi_def_cfa_offset 48
	.cfi_offset 6, -48
	push	rbx
	.cfi_def_cfa_offset 56
	.cfi_offset 3, -56
	.loc 1 346 0
	mov	ebp, 200000
	.loc 1 337 0
	sub	rsp, 24
	.cfi_def_cfa_offset 80
	.loc 1 345 0
	call	init@PLT
.LVL201:
	.loc 1 346 0
	call	clock@PLT
.LVL202:
	mov	r12, QWORD PTR a@GOTPCREL[rip]
	mov	r15, QWORD PTR cc@GOTPCREL[rip]
	mov	r14, QWORD PTR bb@GOTPCREL[rip]
	mov	r13, QWORD PTR b@GOTPCREL[rip]
	mov	QWORD PTR 8[rsp], rax
.LVL203:
	lea	rbx, -16[r12]
.LVL204:
	.p2align 4,,10
	.p2align 3
.L181:
.LBB225:
.LBB226:
	.loc 1 351 0
	movss	xmm0, DWORD PTR 127992[r12]
	lea	rax, 127968[r12]
	lea	rdx, 127968[r13]
	addss	xmm0, DWORD PTR 127992[r13]
	movss	DWORD PTR 127996[r12], xmm0
.LVL205:
	movss	xmm0, DWORD PTR 127988[r13]
	addss	xmm0, DWORD PTR 127988[r12]
	movss	DWORD PTR 127992[r12], xmm0
.LVL206:
	movss	xmm0, DWORD PTR 127984[r13]
	addss	xmm0, DWORD PTR 127984[r12]
	movss	DWORD PTR 127988[r12], xmm0
.LVL207:
	.p2align 4,,10
	.p2align 3
.L182:
	.loc 1 351 0 is_stmt 0 discriminator 3
	movaps	xmm0, XMMWORD PTR [rax]
	sub	rax, 16
	sub	rdx, 16
	movaps	xmm1, XMMWORD PTR 16[rdx]
	shufps	xmm0, xmm0, 27
	shufps	xmm1, xmm1, 27
	addps	xmm0, xmm1
	shufps	xmm0, xmm0, 27
	movups	XMMWORD PTR 20[rax], xmm0
	cmp	rbx, rax
	jne	.L182
.LBE226:
	.loc 1 353 0 is_stmt 1
	mov	rdx, QWORD PTR c@GOTPCREL[rip]
	pxor	xmm0, xmm0
	mov	r9, QWORD PTR aa@GOTPCREL[rip]
	mov	r8, QWORD PTR e@GOTPCREL[rip]
	mov	rsi, r13
	mov	rcx, QWORD PTR d@GOTPCREL[rip]
	push	r15
	.cfi_def_cfa_offset 88
	mov	rdi, r12
	push	r14
	.cfi_def_cfa_offset 96
	call	dummy@PLT
.LVL208:
	.loc 1 348 0
	sub	ebp, 1
	pop	rax
	.cfi_def_cfa_offset 88
	pop	rdx
	.cfi_def_cfa_offset 80
	jne	.L181
.LBE225:
	.loc 1 355 0
	call	clock@PLT
.LVL209:
.LBB227:
.LBB228:
	.loc 2 104 0
	sub	rax, QWORD PTR 8[rsp]
.LVL210:
	pxor	xmm0, xmm0
	lea	rsi, .LC36[rip]
	mov	edi, 1
	cvtsi2sdq	xmm0, rax
	mov	eax, 1
.LVL211:
	mulsd	xmm0, QWORD PTR .LC24[rip]
	call	__printf_chk@PLT
.LVL212:
.LBE228:
.LBE227:
	.loc 1 358 0
	mov	edi, 1
	call	check@PLT
.LVL213:
	.loc 1 360 0
	add	rsp, 24
	.cfi_def_cfa_offset 56
	xor	eax, eax
	pop	rbx
	.cfi_def_cfa_offset 48
	pop	rbp
	.cfi_def_cfa_offset 40
	pop	r12
	.cfi_def_cfa_offset 32
	pop	r13
	.cfi_def_cfa_offset 24
	pop	r14
	.cfi_def_cfa_offset 16
	pop	r15
	.cfi_def_cfa_offset 8
	ret
	.cfi_endproc
.LFE579:
	.size	s112, .-s112
	.section	.text.unlikely
.LCOLDE37:
	.text
.LHOTE37:
	.section	.rodata.str1.1
.LC38:
	.string	"Loop \t Time(Sec) \t Checksum \n"
.LC39:
	.string	"For ICC:\n"
.LC40:
	.string	"For GCC:\n"
.LC41:
	.string	"For LLVM:\n"
.LC42:
	.string	"Total running time:\t %.5f \n"
	.section	.text.unlikely
.LCOLDB43:
	.section	.text.startup,"ax",@progbits
.LHOTB43:
	.p2align 4,,15
	.globl	main
	.type	main, @function
main:
.LFB580:
	.loc 1 362 0
	.cfi_startproc
	push	rbx
	.cfi_def_cfa_offset 16
	.cfi_offset 3, -16
	.loc 1 366 0
	mov	esi, 128000
	mov	edi, 16
	.loc 1 362 0
	sub	rsp, 16
	.cfi_def_cfa_offset 32
	.loc 1 362 0
	mov	rax, QWORD PTR fs:40
	mov	QWORD PTR 8[rsp], rax
	xor	eax, eax
.LVL214:
	.loc 1 366 0
	call	memalign@PLT
.LVL215:
	.loc 1 368 0
	lea	rdx, 4[rsp]
	mov	rdi, rax
	mov	rsi, rsp
	call	set@PLT
.LVL216:
.LBB229:
.LBB230:
	.loc 2 104 0
	lea	rsi, .LC38[rip]
	mov	edi, 1
	xor	eax, eax
	call	__printf_chk@PLT
.LVL217:
.LBE230:
.LBE229:
	.loc 1 371 0
	call	clock@PLT
.LVL218:
.LBB231:
.LBB232:
	.loc 2 104 0
	lea	rsi, .LC39[rip]
	mov	edi, 1
.LBE232:
.LBE231:
	.loc 1 371 0
	mov	rbx, rax
.LVL219:
.LBB234:
.LBB233:
	.loc 2 104 0
	xor	eax, eax
.LVL220:
	call	__printf_chk@PLT
.LVL221:
.LBE233:
.LBE234:
	.loc 1 374 0
	movss	xmm1, DWORD PTR 4[rsp]
	movss	xmm0, DWORD PTR [rsp]
	call	s242@PLT
.LVL222:
	.loc 1 375 0
	xor	eax, eax
	call	s2275@PLT
.LVL223:
.LBB235:
.LBB236:
	.loc 2 104 0
	lea	rsi, .LC40[rip]
	mov	edi, 1
	xor	eax, eax
	call	__printf_chk@PLT
.LVL224:
.LBE236:
.LBE235:
	.loc 1 379 0
	xor	eax, eax
	call	s112@PLT
.LVL225:
.LBB237:
.LBB238:
	.loc 2 104 0
	lea	rsi, .LC41[rip]
	mov	edi, 1
	xor	eax, eax
	call	__printf_chk@PLT
.LVL226:
.LBE238:
.LBE237:
	.loc 1 383 0
	xor	eax, eax
	call	s312@PLT
.LVL227:
	.loc 1 384 0
	xor	eax, eax
	call	s317@PLT
.LVL228:
	.loc 1 386 0
	call	clock@PLT
.LVL229:
.LBB239:
.LBB240:
	.loc 2 104 0
	pxor	xmm0, xmm0
	sub	rax, rbx
.LVL230:
	lea	rsi, .LC42[rip]
	mov	edi, 1
	cvtsi2sdq	xmm0, rax
	mov	eax, 1
.LVL231:
	mulsd	xmm0, QWORD PTR .LC24[rip]
	call	__printf_chk@PLT
.LVL232:
.LBE240:
.LBE239:
	.loc 1 391 0
	mov	rcx, QWORD PTR 8[rsp]
	xor	rcx, QWORD PTR fs:40
	jne	.L189
	add	rsp, 16
	.cfi_remember_state
	.cfi_def_cfa_offset 16
	xor	eax, eax
	pop	rbx
	.cfi_def_cfa_offset 8
.LVL233:
	ret
.LVL234:
.L189:
	.cfi_restore_state
	call	__stack_chk_fail@PLT
.LVL235:
	.cfi_endproc
.LFE580:
	.size	main, .-main
	.section	.text.unlikely
.LCOLDE43:
	.section	.text.startup
.LHOTE43:
	.comm	yy,8,8
	.comm	xx,8,8
	.comm	indx,128000,16
	.comm	tt,129600,16
	.comm	cc,129600,16
	.comm	bb,129600,16
	.comm	aa,129600,16
	.comm	e,128000,16
	.comm	d,128000,16
	.comm	c,128000,16
	.comm	b,128000,16
	.comm	a,128000,16
	.comm	temp_int,4,4
	.comm	temp,4,4
	.comm	x,128000,16
	.comm	array,129600,16
	.comm	V,128000,16
	.comm	U,128000,16
	.comm	Z,128000,16
	.comm	Y,128000,16
	.comm	X,128000,16
	.section	.rodata.cst4,"aM",@progbits,4
	.align 4
.LC0:
	.long	1065353216
	.section	.rodata.cst16,"aM",@progbits,16
	.align 16
.LC3:
	.long	0
	.long	1
	.long	2
	.long	3
	.align 16
.LC4:
	.long	4
	.long	4
	.long	4
	.long	4
	.align 16
.LC5:
	.long	1
	.long	1
	.long	1
	.long	1
	.align 16
.LC6:
	.long	1065353216
	.long	1065353216
	.long	1065353216
	.long	1065353216
	.section	.rodata.cst4
	.align 4
.LC15:
	.long	897988541
	.align 4
.LC18:
	.long	1065353224
	.section	.rodata.cst16
	.align 16
.LC21:
	.long	3
	.long	3
	.long	3
	.long	3
	.section	.rodata.cst8,"aM",@progbits,8
	.align 8
.LC24:
	.long	2696277389
	.long	1051772663
	.section	.rodata.cst16
	.align 16
.LC33:
	.long	1065185444
	.long	1065185444
	.long	1065185444
	.long	1065185444
	.text
.Letext0:
	.section	.text.unlikely
.Letext_cold0:
	.file 3 "/usr/lib/gcc/x86_64-linux-gnu/5/include/stddef.h"
	.file 4 "/usr/include/x86_64-linux-gnu/bits/types.h"
	.file 5 "/usr/include/libio.h"
	.file 6 "/usr/include/time.h"
	.file 7 "/usr/include/stdio.h"
	.file 8 "/usr/include/malloc.h"
	.section	.note.GNU-stack,"",@progbits
